; Function Attrs: mustprogress uwtable
define internal void @_ZN11opencv_testL32gtest_stitch_a123_EvalGenerator_B5cxx11Ev(ptr dead_on_unwind noalias writable sret(%"class.testing::internal::ParamGenerator") align 8 %0) #4 {
  %2 = alloca %"class.testing::internal::ValueArray2", align 8
  call void @llvm.lifetime.start.p0(i64 16, ptr nonnull %2) #30
  store ptr @.str.30, ptr %2, align 8, !tbaa !70, !alias.scope !72
  %3 = getelementptr inbounds nuw i8, ptr %2, i64 8
  store ptr @.str.90, ptr %3, align 8, !tbaa !75, !alias.scope !72
  call void @_ZNK7testing8internal11ValueArray2IPKcS3_EcvNS0_14ParamGeneratorIT_EEINSt7__cxx1112basic_stringIcSt11char_traitsIcESaIcEEEEEv(ptr dead_on_unwind writable sret(%"class.testing::internal::ParamGenerator") align 8 %0, ptr noundef nonnull align 8 dereferenceable(16) %2)
  call void @llvm.lifetime.end.p0(i64 16, ptr nonnull %2) #30
  ret void
}